; Function Attrs: mustprogress uwtable
define dso_local void @_ZN4i18n12phonenumbers12NumberFormat8CopyFromERKS1_(ptr noundef nonnull align 8 dereferenceable(88) %0, ptr noundef nonnull align 8 dereferenceable(88) %1) local_unnamed_addr #3 align 2 {
  %3 = icmp eq ptr %1, %0
  br i1 %3, label %5, label %4

4:                                                ; preds = %2
  tail call void @_ZN4i18n12phonenumbers12NumberFormat5ClearEv(ptr noundef nonnull align 8 dereferenceable(88) %0)
  tail call void @_ZN4i18n12phonenumbers12NumberFormat9MergeFromERKS1_(ptr noundef nonnull align 8 dereferenceable(88) %0, ptr noundef nonnull align 8 dereferenceable(88) %1)
  br label %5

5:                                                ; preds = %2, %4
  ret void
}